; Function Attrs: mustprogress uwtable
define hidden void @_ZN4LIEF10FileStreamC2ESt14basic_ifstreamIcSt11char_traitsIcEEm(ptr noundef nonnull align 8 dereferenceable(552) %0, ptr noundef %1, i64 noundef %2) unnamed_addr #3 align 2 personality ptr @__gxx_personality_v0 {
  tail call void @_ZN4LIEF12BinaryStreamC2Ev(ptr noundef nonnull align 8 dereferenceable(24) %0)
  store ptr getelementptr inbounds ({ [15 x ptr] }, ptr @_ZTVN4LIEF10FileStreamE, i64 0, i32 0, i64 2), ptr %0, align 8
  %4 = getelementptr inbounds i8, ptr %0, i64 24
  invoke void @_ZNSt14basic_ifstreamIcSt11char_traitsIcEEC1EOS2_(ptr noundef nonnull align 8 dereferenceable(256) %4, ptr noundef nonnull align 8 dereferenceable(256) %1)
          to label %5 unwind label %8

5:                                                ; preds = %3
  %6 = getelementptr inbounds i8, ptr %0, i64 544
  store i64 %2, ptr %6, align 8
  %7 = getelementptr inbounds i8, ptr %0, i64 20
  store i32 4, ptr %7, align 4
  ret void

8:                                                ; preds = %3
  %9 = landingpad { ptr, i32 }
          cleanup
  tail call void @_ZN4LIEF12BinaryStreamD2Ev(ptr noundef nonnull align 8 dereferenceable(24) %0) #20
  resume { ptr, i32 } %9
}